target datalayout = "e-m:e-p270:32:32-p271:32:32-p272:64:64-i64:64-i128:128-f80:128-n8:16:32:64-S128"
target triple = "x86_64-pc-linux-gnu"

%struct.RelationData = type { %struct.RelFileLocator, ptr, i32, i32, i8, i8, i8, i8, i8, i32, i32, i32, i32, ptr, ptr, i32, %struct.LockInfoData, ptr, ptr, ptr, ptr, ptr, i8, ptr, ptr, ptr, ptr, ptr, ptr, i32, ptr, i8, ptr, ptr, i32, i8, i32, ptr, i8, ptr, ptr, ptr, ptr, ptr, ptr, ptr, i32, ptr, ptr, ptr, ptr, ptr, ptr, ptr, ptr, ptr, ptr, ptr, ptr, ptr, ptr, ptr, ptr, ptr, ptr, ptr, i32, i8, ptr }
%struct.RelFileLocator = type { i32, i32, i32 }
%struct.LockInfoData = type { %struct.LockRelId }
%struct.LockRelId = type { i32, i32 }
%struct.FormData_pg_class = type { i32, %struct.nameData, i32, i32, i32, i32, i32, i32, i32, i32, float, i32, i32, i8, i8, i8, i8, i16, i16, i8, i8, i8, i8, i8, i8, i8, i8, i32, i32, i32 }
%struct.nameData = type { [64 x i8] }
%struct.FunctionCallInfoBaseData = type { ptr, ptr, ptr, i32, i8, i16, [0 x %struct.NullableDatum] }
%struct.NullableDatum = type { i64, i8 }
%struct.FormData_pg_index = type { i32, i32, i16, i16, i8, i8, i8, i8, i8, i8, i8, i8, i8, i8, i8, %struct.int2vector }
%struct.int2vector = type { i32, i32, i32, i32, i32, i32, [0 x i16] }

@.str.1 = private unnamed_addr constant [7 x i8] c"brin.c\00", align 1
@.str.7 = private unnamed_addr constant [24 x i8] c"recovery is in progress\00", align 1
@.str.8 = private unnamed_addr constant [59 x i8] c"BRIN control functions cannot be executed during recovery.\00", align 1
@__func__.brin_summarize_range = private unnamed_addr constant [21 x i8] c"brin_summarize_range\00", align 1
@.str.9 = private unnamed_addr constant [32 x i8] c"block number out of range: %lld\00", align 1
@.str.10 = private unnamed_addr constant [25 x i8] c"\22%s\22 is not a BRIN index\00", align 1
@.str.11 = private unnamed_addr constant [42 x i8] c"could not open parent table of index \22%s\22\00", align 1
@.str.12 = private unnamed_addr constant [24 x i8] c"index \22%s\22 is not valid\00", align 1

; Function Attrs: inlinehint nounwind uwtable
define internal i64 @Int32GetDatum(i32 noundef %0) #2 {
  %2 = alloca i32, align 4
  store i32 %0, ptr %2, align 4
  %3 = load i32, ptr %2, align 4
  %4 = sext i32 %3 to i64
  ret i64 %4
}

; Function Attrs: inlinehint nounwind uwtable
define internal i64 @DatumGetInt64(i64 noundef %0) #2 {
  %2 = alloca i64, align 8
  store i64 %0, ptr %2, align 8
  %3 = load i64, ptr %2, align 8
  ret i64 %3
}

; Function Attrs: inlinehint nounwind uwtable
define internal i32 @DatumGetObjectId(i64 noundef %0) #2 {
  %2 = alloca i64, align 8
  store i64 %0, ptr %2, align 8
  %3 = load i64, ptr %2, align 8
  %4 = trunc i64 %3 to i32
  ret i32 %4
}

; Function Attrs: nounwind uwtable
define dso_local i64 @brin_summarize_range(ptr noundef %0) #0 {
  %2 = alloca ptr, align 8
  %3 = alloca i32, align 4
  %4 = alloca i64, align 8
  %5 = alloca i32, align 4
  %6 = alloca i32, align 4
  %7 = alloca ptr, align 8
  %8 = alloca ptr, align 8
  %9 = alloca i32, align 4
  %10 = alloca i32, align 4
  %11 = alloca i32, align 4
  %12 = alloca double, align 8
  store ptr %0, ptr %2, align 8
  call void @llvm.lifetime.start.p0(i64 4, ptr %3) #9
  %13 = load ptr, ptr %2, align 8
  %14 = getelementptr inbounds nuw %struct.FunctionCallInfoBaseData, ptr %13, i32 0, i32 6
  %15 = getelementptr inbounds [0 x %struct.NullableDatum], ptr %14, i64 0, i64 0
  %16 = getelementptr inbounds nuw %struct.NullableDatum, ptr %15, i32 0, i32 0
  %17 = load i64, ptr %16, align 8
  %18 = call i32 @DatumGetObjectId(i64 noundef %17)
  store i32 %18, ptr %3, align 4
  call void @llvm.lifetime.start.p0(i64 8, ptr %4) #9
  %19 = load ptr, ptr %2, align 8
  %20 = getelementptr inbounds nuw %struct.FunctionCallInfoBaseData, ptr %19, i32 0, i32 6
  %21 = getelementptr inbounds [0 x %struct.NullableDatum], ptr %20, i64 0, i64 1
  %22 = getelementptr inbounds nuw %struct.NullableDatum, ptr %21, i32 0, i32 0
  %23 = load i64, ptr %22, align 8
  %24 = call i64 @DatumGetInt64(i64 noundef %23)
  store i64 %24, ptr %4, align 8
  call void @llvm.lifetime.start.p0(i64 4, ptr %5) #9
  call void @llvm.lifetime.start.p0(i64 4, ptr %6) #9
  call void @llvm.lifetime.start.p0(i64 8, ptr %7) #9
  call void @llvm.lifetime.start.p0(i64 8, ptr %8) #9
  call void @llvm.lifetime.start.p0(i64 4, ptr %9) #9
  call void @llvm.lifetime.start.p0(i64 4, ptr %10) #9
  call void @llvm.lifetime.start.p0(i64 4, ptr %11) #9
  call void @llvm.lifetime.start.p0(i64 8, ptr %12) #9
  store double 0.000000e+00, ptr %12, align 8
  %25 = call zeroext i1 @RecoveryInProgress()
  br i1 %25, label %26, label %39

26:                                               ; preds = %1
  br label %27

27:                                               ; preds = %26
  br i1 true, label %28, label %30

28:                                               ; preds = %27
  %29 = call zeroext i1 @errstart_cold(i32 noundef 21, ptr noundef null) #10
  br i1 %29, label %32, label %36

30:                                               ; preds = %27
  %31 = call zeroext i1 @errstart(i32 noundef 21, ptr noundef null)
  br i1 %31, label %32, label %36

32:                                               ; preds = %30, %28
  %33 = call i32 @errcode(i32 noundef 325)
  %34 = call i32 (ptr, ...) @errmsg(ptr noundef @.str.7)
  %35 = call i32 (ptr, ...) @errhint(ptr noundef @.str.8)
  call void @errfinish(ptr noundef @.str.1, i32 noundef 1391, ptr noundef @__func__.brin_summarize_range)
  br label %36

36:                                               ; preds = %32, %30, %28
  unreachable

37:                                               ; No predecessors!
  br label %38

38:                                               ; preds = %37
  br label %39

39:                                               ; preds = %38, %1
  %40 = load i64, ptr %4, align 8
  %41 = icmp sgt i64 %40, 4294967295
  br i1 %41, label %45, label %42

42:                                               ; preds = %39
  %43 = load i64, ptr %4, align 8
  %44 = icmp slt i64 %43, 0
  br i1 %44, label %45, label %58

45:                                               ; preds = %42, %39
  br label %46

46:                                               ; preds = %45
  br i1 true, label %47, label %49

47:                                               ; preds = %46
  %48 = call zeroext i1 @errstart_cold(i32 noundef 21, ptr noundef null) #10
  br i1 %48, label %51, label %55

49:                                               ; preds = %46
  %50 = call zeroext i1 @errstart(i32 noundef 21, ptr noundef null)
  br i1 %50, label %51, label %55

51:                                               ; preds = %49, %47
  %52 = call i32 @errcode(i32 noundef 50331778)
  %53 = load i64, ptr %4, align 8
  %54 = call i32 (ptr, ...) @errmsg(ptr noundef @.str.9, i64 noundef %53)
  call void @errfinish(ptr noundef @.str.1, i32 noundef 1397, ptr noundef @__func__.brin_summarize_range)
  br label %55

55:                                               ; preds = %51, %49, %47
  unreachable

56:                                               ; No predecessors!
  br label %57

57:                                               ; preds = %56
  br label %58

58:                                               ; preds = %57, %42
  %59 = load i64, ptr %4, align 8
  %60 = trunc i64 %59 to i32
  store i32 %60, ptr %5, align 4
  %61 = load i32, ptr %3, align 4
  %62 = call i32 @IndexGetRelation(i32 noundef %61, i1 noundef zeroext true)
  store i32 %62, ptr %6, align 4
  %63 = load i32, ptr %6, align 4
  %64 = icmp ne i32 %63, 0
  br i1 %64, label %65, label %76

65:                                               ; preds = %58
  %66 = load i32, ptr %6, align 4
  %67 = call ptr @table_open(i32 noundef %66, i32 noundef 4)
  store ptr %67, ptr %8, align 8
  call void @GetUserIdAndSecContext(ptr noundef %9, ptr noundef %10)
  %68 = load ptr, ptr %8, align 8
  %69 = getelementptr inbounds nuw %struct.RelationData, ptr %68, i32 0, i32 13
  %70 = load ptr, ptr %69, align 8
  %71 = getelementptr inbounds nuw %struct.FormData_pg_class, ptr %70, i32 0, i32 5
  %72 = load i32, ptr %71, align 4
  %73 = load i32, ptr %10, align 4
  %74 = or i32 %73, 2
  call void @SetUserIdAndSecContext(i32 noundef %72, i32 noundef %74)
  %75 = call i32 @NewGUCNestLevel()
  store i32 %75, ptr %11, align 4
  call void @RestrictSearchPath()
  br label %77

76:                                               ; preds = %58
  store ptr null, ptr %8, align 8
  store i32 0, ptr %9, align 4
  store i32 -1, ptr %10, align 4
  store i32 -1, ptr %11, align 4
  br label %77

77:                                               ; preds = %76, %65
  %78 = load i32, ptr %3, align 4
  %79 = call ptr @index_open(i32 noundef %78, i32 noundef 4)
  store ptr %79, ptr %7, align 8
  %80 = load ptr, ptr %7, align 8
  %81 = getelementptr inbounds nuw %struct.RelationData, ptr %80, i32 0, i32 13
  %82 = load ptr, ptr %81, align 8
  %83 = getelementptr inbounds nuw %struct.FormData_pg_class, ptr %82, i32 0, i32 16
  %84 = load i8, ptr %83, align 1
  %85 = sext i8 %84 to i32
  %86 = icmp ne i32 %85, 105
  br i1 %86, label %94, label %87

87:                                               ; preds = %77
  %88 = load ptr, ptr %7, align 8
  %89 = getelementptr inbounds nuw %struct.RelationData, ptr %88, i32 0, i32 13
  %90 = load ptr, ptr %89, align 8
  %91 = getelementptr inbounds nuw %struct.FormData_pg_class, ptr %90, i32 0, i32 6
  %92 = load i32, ptr %91, align 4
  %93 = icmp ne i32 %92, 3580
  br i1 %93, label %94, label %112

94:                                               ; preds = %87, %77
  br label %95

95:                                               ; preds = %94
  br i1 true, label %96, label %98

96:                                               ; preds = %95
  %97 = call zeroext i1 @errstart_cold(i32 noundef 21, ptr noundef null) #10
  br i1 %97, label %100, label %109

98:                                               ; preds = %95
  %99 = call zeroext i1 @errstart(i32 noundef 21, ptr noundef null)
  br i1 %99, label %100, label %109

100:                                              ; preds = %98, %96
  %101 = call i32 @errcode(i32 noundef 151027844)
  %102 = load ptr, ptr %7, align 8
  %103 = getelementptr inbounds nuw %struct.RelationData, ptr %102, i32 0, i32 13
  %104 = load ptr, ptr %103, align 8
  %105 = getelementptr inbounds nuw %struct.FormData_pg_class, ptr %104, i32 0, i32 1
  %106 = getelementptr inbounds nuw %struct.nameData, ptr %105, i32 0, i32 0
  %107 = getelementptr inbounds [64 x i8], ptr %106, i64 0, i64 0
  %108 = call i32 (ptr, ...) @errmsg(ptr noundef @.str.10, ptr noundef %107)
  call void @errfinish(ptr noundef @.str.1, i32 noundef 1442, ptr noundef @__func__.brin_summarize_range)
  br label %109

109:                                              ; preds = %100, %98, %96
  unreachable

110:                                              ; No predecessors!
  br label %111

111:                                              ; preds = %110
  br label %112

112:                                              ; preds = %111, %87
  %113 = load ptr, ptr %8, align 8
  %114 = icmp ne ptr %113, null
  br i1 %114, label %115, label %126

115:                                              ; preds = %112
  %116 = load i32, ptr %3, align 4
  %117 = load i32, ptr %9, align 4
  %118 = call zeroext i1 @object_ownercheck(i32 noundef 1259, i32 noundef %116, i32 noundef %117)
  br i1 %118, label %126, label %119

119:                                              ; preds = %115
  %120 = load ptr, ptr %7, align 8
  %121 = getelementptr inbounds nuw %struct.RelationData, ptr %120, i32 0, i32 13
  %122 = load ptr, ptr %121, align 8
  %123 = getelementptr inbounds nuw %struct.FormData_pg_class, ptr %122, i32 0, i32 1
  %124 = getelementptr inbounds nuw %struct.nameData, ptr %123, i32 0, i32 0
  %125 = getelementptr inbounds [64 x i8], ptr %124, i64 0, i64 0
  call void @aclcheck_error(i32 noundef 2, i32 noundef 20, ptr noundef %125)
  br label %126

126:                                              ; preds = %119, %115, %112
  %127 = load ptr, ptr %8, align 8
  %128 = icmp eq ptr %127, null
  br i1 %128, label %134, label %129

129:                                              ; preds = %126
  %130 = load i32, ptr %6, align 4
  %131 = load i32, ptr %3, align 4
  %132 = call i32 @IndexGetRelation(i32 noundef %131, i1 noundef zeroext false)
  %133 = icmp ne i32 %130, %132
  br i1 %133, label %134, label %152

134:                                              ; preds = %129, %126
  br label %135

135:                                              ; preds = %134
  br i1 true, label %136, label %138

136:                                              ; preds = %135
  %137 = call zeroext i1 @errstart_cold(i32 noundef 21, ptr noundef null) #10
  br i1 %137, label %140, label %149

138:                                              ; preds = %135
  %139 = call zeroext i1 @errstart(i32 noundef 21, ptr noundef null)
  br i1 %139, label %140, label %149

140:                                              ; preds = %138, %136
  %141 = call i32 @errcode(i32 noundef 16908420)
  %142 = load ptr, ptr %7, align 8
  %143 = getelementptr inbounds nuw %struct.RelationData, ptr %142, i32 0, i32 13
  %144 = load ptr, ptr %143, align 8
  %145 = getelementptr inbounds nuw %struct.FormData_pg_class, ptr %144, i32 0, i32 1
  %146 = getelementptr inbounds nuw %struct.nameData, ptr %145, i32 0, i32 0
  %147 = getelementptr inbounds [64 x i8], ptr %146, i64 0, i64 0
  %148 = call i32 (ptr, ...) @errmsg(ptr noundef @.str.11, ptr noundef %147)
  call void @errfinish(ptr noundef @.str.1, i32 noundef 1458, ptr noundef @__func__.brin_summarize_range)
  br label %149

149:                                              ; preds = %140, %138, %136
  unreachable

150:                                              ; No predecessors!
  br label %151

151:                                              ; preds = %150
  br label %152

152:                                              ; preds = %151, %129
  %153 = load ptr, ptr %7, align 8
  %154 = getelementptr inbounds nuw %struct.RelationData, ptr %153, i32 0, i32 48
  %155 = load ptr, ptr %154, align 8
  %156 = getelementptr inbounds nuw %struct.FormData_pg_index, ptr %155, i32 0, i32 10
  %157 = load i8, ptr %156, align 2, !range !4, !noundef !5
  %158 = trunc i8 %157 to i1
  br i1 %158, label %159, label %163

159:                                              ; preds = %152
  %160 = load ptr, ptr %7, align 8
  %161 = load ptr, ptr %8, align 8
  %162 = load i32, ptr %5, align 4
  call void @brinsummarize(ptr noundef %160, ptr noundef %161, i32 noundef %162, i1 noundef zeroext true, ptr noundef %12, ptr noundef null)
  br label %181

163:                                              ; preds = %152
  br label %164

164:                                              ; preds = %163
  br i1 false, label %165, label %167

165:                                              ; preds = %164
  %166 = call zeroext i1 @errstart_cold(i32 noundef 14, ptr noundef null) #10
  br i1 %166, label %169, label %178

167:                                              ; preds = %164
  %168 = call zeroext i1 @errstart(i32 noundef 14, ptr noundef null)
  br i1 %168, label %169, label %178

169:                                              ; preds = %167, %165
  %170 = call i32 @errcode(i32 noundef 325)
  %171 = load ptr, ptr %7, align 8
  %172 = getelementptr inbounds nuw %struct.RelationData, ptr %171, i32 0, i32 13
  %173 = load ptr, ptr %172, align 8
  %174 = getelementptr inbounds nuw %struct.FormData_pg_class, ptr %173, i32 0, i32 1
  %175 = getelementptr inbounds nuw %struct.nameData, ptr %174, i32 0, i32 0
  %176 = getelementptr inbounds [64 x i8], ptr %175, i64 0, i64 0
  %177 = call i32 (ptr, ...) @errmsg(ptr noundef @.str.12, ptr noundef %176)
  call void @errfinish(ptr noundef @.str.1, i32 noundef 1467, ptr noundef @__func__.brin_summarize_range)
  br label %178

178:                                              ; preds = %169, %167, %165
  br label %179

179:                                              ; preds = %178
  br label %180

180:                                              ; preds = %179
  br label %181

181:                                              ; preds = %180, %159
  %182 = load i32, ptr %11, align 4
  call void @AtEOXact_GUC(i1 noundef zeroext false, i32 noundef %182)
  %183 = load i32, ptr %9, align 4
  %184 = load i32, ptr %10, align 4
  call void @SetUserIdAndSecContext(i32 noundef %183, i32 noundef %184)
  %185 = load ptr, ptr %7, align 8
  call void @relation_close(ptr noundef %185, i32 noundef 4)
  %186 = load ptr, ptr %8, align 8
  call void @relation_close(ptr noundef %186, i32 noundef 4)
  %187 = load double, ptr %12, align 8
  %188 = fptosi double %187 to i32
  %189 = call i64 @Int32GetDatum(i32 noundef %188)
  call void @llvm.lifetime.end.p0(i64 8, ptr %12) #9
  call void @llvm.lifetime.end.p0(i64 4, ptr %11) #9
  call void @llvm.lifetime.end.p0(i64 4, ptr %10) #9
  call void @llvm.lifetime.end.p0(i64 4, ptr %9) #9
  call void @llvm.lifetime.end.p0(i64 8, ptr %8) #9
  call void @llvm.lifetime.end.p0(i64 8, ptr %7) #9
  call void @llvm.lifetime.end.p0(i64 4, ptr %6) #9
  call void @llvm.lifetime.end.p0(i64 4, ptr %5) #9
  call void @llvm.lifetime.end.p0(i64 8, ptr %4) #9
  call void @llvm.lifetime.end.p0(i64 4, ptr %3) #9
  ret i64 %189
}