; Function Attrs: nounwind uwtable
define dso_local range(i64 -2147483648, 2147483648) i64 @brin_summarize_range(ptr noundef readonly captures(none) %0) #0 {
  %2 = alloca i32, align 4
  %3 = alloca i32, align 4
  %4 = alloca double, align 8
  %5 = getelementptr inbounds nuw i8, ptr %0, i64 32
  %6 = load i64, ptr %5, align 8
  %7 = trunc i64 %6 to i32
  %8 = getelementptr inbounds nuw i8, ptr %0, i64 48
  %9 = load i64, ptr %8, align 8
  call void @llvm.lifetime.start.p0(i64 4, ptr nonnull %2) #10
  call void @llvm.lifetime.start.p0(i64 4, ptr nonnull %3) #10
  call void @llvm.lifetime.start.p0(i64 8, ptr nonnull %4) #10
  store double 0.000000e+00, ptr %4, align 8
  %10 = tail call zeroext i1 @RecoveryInProgress() #10
  br i1 %10, label %11, label %16

11:                                               ; preds = %1
  %12 = tail call zeroext i1 @errstart_cold(i32 noundef 21, ptr noundef null) #11
  tail call void @llvm.assume(i1 %12)
  %13 = tail call i32 @errcode(i32 noundef 325) #10
  %14 = tail call i32 (ptr, ...) @errmsg(ptr noundef nonnull @.str.7) #10
  %15 = tail call i32 (ptr, ...) @errhint(ptr noundef nonnull @.str.8) #10
  tail call void @errfinish(ptr noundef nonnull @.str.1, i32 noundef 1391, ptr noundef nonnull @__func__.brin_summarize_range) #10
  unreachable

16:                                               ; preds = %1
  %or.cond = icmp ugt i64 %9, 4294967295
  br i1 %or.cond, label %17, label %21

17:                                               ; preds = %16
  %18 = tail call zeroext i1 @errstart_cold(i32 noundef 21, ptr noundef null) #11
  tail call void @llvm.assume(i1 %18)
  %19 = tail call i32 @errcode(i32 noundef 50331778) #10
  %20 = tail call i32 (ptr, ...) @errmsg(ptr noundef nonnull @.str.9, i64 noundef %9) #10
  tail call void @errfinish(ptr noundef nonnull @.str.1, i32 noundef 1397, ptr noundef nonnull @__func__.brin_summarize_range) #10
  unreachable

21:                                               ; preds = %16
  %22 = trunc nuw i64 %9 to i32
  %23 = tail call i32 @IndexGetRelation(i32 noundef %7, i1 noundef zeroext true) #10
  %.not = icmp eq i32 %23, 0
  br i1 %.not, label %33, label %24

24:                                               ; preds = %21
  %25 = tail call ptr @table_open(i32 noundef %23, i32 noundef 4) #10
  call void @GetUserIdAndSecContext(ptr noundef nonnull %2, ptr noundef nonnull %3) #10
  %26 = getelementptr inbounds nuw i8, ptr %25, i64 56
  %27 = load ptr, ptr %26, align 8
  %28 = getelementptr inbounds nuw i8, ptr %27, i64 80
  %29 = load i32, ptr %28, align 4
  %30 = load i32, ptr %3, align 4
  %31 = or i32 %30, 2
  call void @SetUserIdAndSecContext(i32 noundef %29, i32 noundef %31) #10
  %32 = call i32 @NewGUCNestLevel() #10
  call void @RestrictSearchPath() #10
  br label %34

33:                                               ; preds = %21
  store i32 0, ptr %2, align 4
  store i32 -1, ptr %3, align 4
  br label %34

34:                                               ; preds = %33, %24
  %.029 = phi ptr [ %25, %24 ], [ null, %33 ]
  %.0 = phi i32 [ %32, %24 ], [ -1, %33 ]
  %35 = call ptr @index_open(i32 noundef %7, i32 noundef 4) #10
  %36 = getelementptr inbounds nuw i8, ptr %35, i64 56
  %37 = load ptr, ptr %36, align 8
  %38 = getelementptr inbounds nuw i8, ptr %37, i64 115
  %39 = load i8, ptr %38, align 1
  %.not32 = icmp eq i8 %39, 105
  br i1 %.not32, label %40, label %43

40:                                               ; preds = %34
  %41 = getelementptr inbounds nuw i8, ptr %37, i64 84
  %42 = load i32, ptr %41, align 4
  %.not33 = icmp eq i32 %42, 3580
  br i1 %.not33, label %49, label %43

43:                                               ; preds = %40, %34
  %44 = call zeroext i1 @errstart_cold(i32 noundef 21, ptr noundef null) #11
  call void @llvm.assume(i1 %44)
  %45 = call i32 @errcode(i32 noundef 151027844) #10
  %46 = load ptr, ptr %36, align 8
  %47 = getelementptr inbounds nuw i8, ptr %46, i64 4
  %48 = call i32 (ptr, ...) @errmsg(ptr noundef nonnull @.str.10, ptr noundef nonnull %47) #10
  call void @errfinish(ptr noundef nonnull @.str.1, i32 noundef 1442, ptr noundef nonnull @__func__.brin_summarize_range) #10
  unreachable

49:                                               ; preds = %40
  %cond = icmp eq ptr %.029, null
  br i1 %cond, label %58, label %50

50:                                               ; preds = %49
  %51 = load i32, ptr %2, align 4
  %52 = call zeroext i1 @object_ownercheck(i32 noundef 1259, i32 noundef %7, i32 noundef %51) #10
  br i1 %52, label %56, label %53

53:                                               ; preds = %50
  %54 = load ptr, ptr %36, align 8
  %55 = getelementptr inbounds nuw i8, ptr %54, i64 4
  call void @aclcheck_error(i32 noundef 2, i32 noundef 20, ptr noundef nonnull %55) #10
  br label %56

56:                                               ; preds = %50, %53
  %57 = call i32 @IndexGetRelation(i32 noundef %7, i1 noundef zeroext false) #10
  %.not35 = icmp eq i32 %23, %57
  br i1 %.not35, label %64, label %58

58:                                               ; preds = %49, %56
  %59 = call zeroext i1 @errstart_cold(i32 noundef 21, ptr noundef null) #11
  call void @llvm.assume(i1 %59)
  %60 = call i32 @errcode(i32 noundef 16908420) #10
  %61 = load ptr, ptr %36, align 8
  %62 = getelementptr inbounds nuw i8, ptr %61, i64 4
  %63 = call i32 (ptr, ...) @errmsg(ptr noundef nonnull @.str.11, ptr noundef nonnull %62) #10
  call void @errfinish(ptr noundef nonnull @.str.1, i32 noundef 1458, ptr noundef nonnull @__func__.brin_summarize_range) #10
  unreachable

64:                                               ; preds = %56
  %65 = getelementptr inbounds nuw i8, ptr %35, i64 328
  %66 = load ptr, ptr %65, align 8
  %67 = getelementptr inbounds nuw i8, ptr %66, i64 18
  %68 = load i8, ptr %67, align 2, !range !4, !noundef !5
  %69 = trunc nuw i8 %68 to i1
  br i1 %69, label %70, label %71

70:                                               ; preds = %64
  call fastcc void @brinsummarize(ptr noundef nonnull %35, ptr noundef nonnull %.029, i32 noundef %22, i1 noundef zeroext true, ptr noundef nonnull %4, ptr noundef null)
  br label %78

71:                                               ; preds = %64
  %72 = call zeroext i1 @errstart(i32 noundef 14, ptr noundef null) #10
  br i1 %72, label %73, label %78

73:                                               ; preds = %71
  %74 = call i32 @errcode(i32 noundef 325) #10
  %75 = load ptr, ptr %36, align 8
  %76 = getelementptr inbounds nuw i8, ptr %75, i64 4
  %77 = call i32 (ptr, ...) @errmsg(ptr noundef nonnull @.str.12, ptr noundef nonnull %76) #10
  call void @errfinish(ptr noundef nonnull @.str.1, i32 noundef 1467, ptr noundef nonnull @__func__.brin_summarize_range) #10
  br label %78

78:                                               ; preds = %71, %73, %70
  call void @AtEOXact_GUC(i1 noundef zeroext false, i32 noundef %.0) #10
  %79 = load i32, ptr %2, align 4
  %80 = load i32, ptr %3, align 4
  call void @SetUserIdAndSecContext(i32 noundef %79, i32 noundef %80) #10
  call void @relation_close(ptr noundef nonnull %35, i32 noundef 4) #10
  call void @relation_close(ptr noundef nonnull %.029, i32 noundef 4) #10
  %81 = load double, ptr %4, align 8
  %82 = fptosi double %81 to i32
  %83 = sext i32 %82 to i64
  call void @llvm.lifetime.end.p0(i64 8, ptr nonnull %4) #10
  call void @llvm.lifetime.end.p0(i64 4, ptr nonnull %3) #10
  call void @llvm.lifetime.end.p0(i64 4, ptr nonnull %2) #10
  ret i64 %83
}